target datalayout = "e-m:e-p270:32:32-p271:32:32-p272:64:64-i64:64-i128:128-f80:128-n8:16:32:64-S128"
target triple = "x86_64-pc-linux-gnu"

%class.State = type { [315 x i32], [315 x i16], i32, ptr, [2 x ptr] }

; Function Attrs: mustprogress nounwind uwtable
define hidden void @_ZN5State20_sub_Op_RotateRightVEPK4Node(ptr noundef nonnull align 8 dereferenceable(1920) %0, ptr noundef %1) #1 align 2 {
  %3 = alloca ptr, align 8
  %4 = alloca ptr, align 8
  %5 = alloca i32, align 4
  %6 = alloca i32, align 4
  %7 = alloca i32, align 4
  %8 = alloca i32, align 4
  store ptr %0, ptr %3, align 8
  store ptr %1, ptr %4, align 8
  %9 = load ptr, ptr %3, align 8
  %10 = getelementptr inbounds %class.State, ptr %9, i32 0, i32 4
  %11 = getelementptr inbounds [2 x ptr], ptr %10, i64 0, i64 0
  %12 = load ptr, ptr %11, align 8
  %13 = icmp ne ptr %12, null
  br i1 %13, label %14, label %65

14:                                               ; preds = %2
  %15 = getelementptr inbounds %class.State, ptr %9, i32 0, i32 4
  %16 = getelementptr inbounds [2 x ptr], ptr %15, i64 0, i64 0
  %17 = load ptr, ptr %16, align 8
  %18 = getelementptr inbounds %class.State, ptr %17, i32 0, i32 1
  %19 = getelementptr inbounds [315 x i16], ptr %18, i64 0, i64 289
  %20 = load i16, ptr %19, align 2
  %21 = zext i16 %20 to i32
  %22 = and i32 %21, 1
  %23 = icmp ne i32 %22, 0
  br i1 %23, label %24, label %65

24:                                               ; preds = %14
  %25 = getelementptr inbounds %class.State, ptr %9, i32 0, i32 4
  %26 = getelementptr inbounds [2 x ptr], ptr %25, i64 0, i64 1
  %27 = load ptr, ptr %26, align 8
  %28 = icmp ne ptr %27, null
  br i1 %28, label %29, label %65

29:                                               ; preds = %24
  %30 = getelementptr inbounds %class.State, ptr %9, i32 0, i32 4
  %31 = getelementptr inbounds [2 x ptr], ptr %30, i64 0, i64 1
  %32 = load ptr, ptr %31, align 8
  %33 = getelementptr inbounds %class.State, ptr %32, i32 0, i32 1
  %34 = getelementptr inbounds [315 x i16], ptr %33, i64 0, i64 48
  %35 = load i16, ptr %34, align 4
  %36 = zext i16 %35 to i32
  %37 = and i32 %36, 1
  %38 = icmp ne i32 %37, 0
  br i1 %38, label %39, label %65

39:                                               ; preds = %29
  %40 = getelementptr inbounds %class.State, ptr %9, i32 0, i32 4
  %41 = getelementptr inbounds [2 x ptr], ptr %40, i64 0, i64 0
  %42 = load ptr, ptr %41, align 8
  %43 = getelementptr inbounds %class.State, ptr %42, i32 0, i32 0
  %44 = getelementptr inbounds [315 x i32], ptr %43, i64 0, i64 289
  %45 = load i32, ptr %44, align 4
  %46 = getelementptr inbounds %class.State, ptr %9, i32 0, i32 4
  %47 = getelementptr inbounds [2 x ptr], ptr %46, i64 0, i64 1
  %48 = load ptr, ptr %47, align 8
  %49 = getelementptr inbounds %class.State, ptr %48, i32 0, i32 0
  %50 = getelementptr inbounds [315 x i32], ptr %49, i64 0, i64 48
  %51 = load i32, ptr %50, align 8
  %52 = add i32 %45, %51
  %53 = add i32 %52, 100
  store i32 %53, ptr %5, align 4
  %54 = load i32, ptr %5, align 4
  %55 = getelementptr inbounds %class.State, ptr %9, i32 0, i32 0
  %56 = getelementptr inbounds [315 x i32], ptr %55, i64 0, i64 114
  store i32 %54, ptr %56, align 8
  %57 = getelementptr inbounds %class.State, ptr %9, i32 0, i32 1
  %58 = getelementptr inbounds [315 x i16], ptr %57, i64 0, i64 114
  store i16 3209, ptr %58, align 4
  %59 = load i32, ptr %5, align 4
  %60 = add i32 %59, 100
  %61 = getelementptr inbounds %class.State, ptr %9, i32 0, i32 0
  %62 = getelementptr inbounds [315 x i32], ptr %61, i64 0, i64 115
  store i32 %60, ptr %62, align 4
  %63 = getelementptr inbounds %class.State, ptr %9, i32 0, i32 1
  %64 = getelementptr inbounds [315 x i16], ptr %63, i64 0, i64 115
  store i16 731, ptr %64, align 2
  br label %65

65:                                               ; preds = %39, %29, %24, %14, %2
  %66 = getelementptr inbounds %class.State, ptr %9, i32 0, i32 4
  %67 = getelementptr inbounds [2 x ptr], ptr %66, i64 0, i64 0
  %68 = load ptr, ptr %67, align 8
  %69 = icmp ne ptr %68, null
  br i1 %69, label %70, label %150

70:                                               ; preds = %65
  %71 = getelementptr inbounds %class.State, ptr %9, i32 0, i32 4
  %72 = getelementptr inbounds [2 x ptr], ptr %71, i64 0, i64 0
  %73 = load ptr, ptr %72, align 8
  %74 = getelementptr inbounds %class.State, ptr %73, i32 0, i32 1
  %75 = getelementptr inbounds [315 x i16], ptr %74, i64 0, i64 303
  %76 = load i16, ptr %75, align 2
  %77 = zext i16 %76 to i32
  %78 = and i32 %77, 1
  %79 = icmp ne i32 %78, 0
  br i1 %79, label %80, label %150

80:                                               ; preds = %70
  %81 = getelementptr inbounds %class.State, ptr %9, i32 0, i32 4
  %82 = getelementptr inbounds [2 x ptr], ptr %81, i64 0, i64 1
  %83 = load ptr, ptr %82, align 8
  %84 = icmp ne ptr %83, null
  br i1 %84, label %85, label %150

85:                                               ; preds = %80
  %86 = getelementptr inbounds %class.State, ptr %9, i32 0, i32 4
  %87 = getelementptr inbounds [2 x ptr], ptr %86, i64 0, i64 1
  %88 = load ptr, ptr %87, align 8
  %89 = getelementptr inbounds %class.State, ptr %88, i32 0, i32 1
  %90 = getelementptr inbounds [315 x i16], ptr %89, i64 0, i64 48
  %91 = load i16, ptr %90, align 4
  %92 = zext i16 %91 to i32
  %93 = and i32 %92, 1
  %94 = icmp ne i32 %93, 0
  br i1 %94, label %95, label %150

95:                                               ; preds = %85
  %96 = getelementptr inbounds %class.State, ptr %9, i32 0, i32 4
  %97 = getelementptr inbounds [2 x ptr], ptr %96, i64 0, i64 0
  %98 = load ptr, ptr %97, align 8
  %99 = getelementptr inbounds %class.State, ptr %98, i32 0, i32 0
  %100 = getelementptr inbounds [315 x i32], ptr %99, i64 0, i64 303
  %101 = load i32, ptr %100, align 4
  %102 = getelementptr inbounds %class.State, ptr %9, i32 0, i32 4
  %103 = getelementptr inbounds [2 x ptr], ptr %102, i64 0, i64 1
  %104 = load ptr, ptr %103, align 8
  %105 = getelementptr inbounds %class.State, ptr %104, i32 0, i32 0
  %106 = getelementptr inbounds [315 x i32], ptr %105, i64 0, i64 48
  %107 = load i32, ptr %106, align 8
  %108 = add i32 %101, %107
  %109 = add i32 %108, 100
  store i32 %109, ptr %6, align 4
  %110 = getelementptr inbounds %class.State, ptr %9, i32 0, i32 1
  %111 = getelementptr inbounds [315 x i16], ptr %110, i64 0, i64 114
  %112 = load i16, ptr %111, align 4
  %113 = zext i16 %112 to i32
  %114 = and i32 %113, 1
  %115 = icmp eq i32 %114, 0
  br i1 %115, label %122, label %116

116:                                              ; preds = %95
  %117 = getelementptr inbounds %class.State, ptr %9, i32 0, i32 0
  %118 = getelementptr inbounds [315 x i32], ptr %117, i64 0, i64 114
  %119 = load i32, ptr %118, align 8
  %120 = load i32, ptr %6, align 4
  %121 = icmp ugt i32 %119, %120
  br i1 %121, label %122, label %128

122:                                              ; preds = %116, %95
  %123 = load i32, ptr %6, align 4
  %124 = getelementptr inbounds %class.State, ptr %9, i32 0, i32 0
  %125 = getelementptr inbounds [315 x i32], ptr %124, i64 0, i64 114
  store i32 %123, ptr %125, align 8
  %126 = getelementptr inbounds %class.State, ptr %9, i32 0, i32 1
  %127 = getelementptr inbounds [315 x i16], ptr %126, i64 0, i64 114
  store i16 3205, ptr %127, align 4
  br label %128

128:                                              ; preds = %122, %116
  %129 = getelementptr inbounds %class.State, ptr %9, i32 0, i32 1
  %130 = getelementptr inbounds [315 x i16], ptr %129, i64 0, i64 115
  %131 = load i16, ptr %130, align 2
  %132 = zext i16 %131 to i32
  %133 = and i32 %132, 1
  %134 = icmp eq i32 %133, 0
  br i1 %134, label %142, label %135

135:                                              ; preds = %128
  %136 = getelementptr inbounds %class.State, ptr %9, i32 0, i32 0
  %137 = getelementptr inbounds [315 x i32], ptr %136, i64 0, i64 115
  %138 = load i32, ptr %137, align 4
  %139 = load i32, ptr %6, align 4
  %140 = add i32 %139, 100
  %141 = icmp ugt i32 %138, %140
  br i1 %141, label %142, label %149

142:                                              ; preds = %135, %128
  %143 = load i32, ptr %6, align 4
  %144 = add i32 %143, 100
  %145 = getelementptr inbounds %class.State, ptr %9, i32 0, i32 0
  %146 = getelementptr inbounds [315 x i32], ptr %145, i64 0, i64 115
  store i32 %144, ptr %146, align 4
  %147 = getelementptr inbounds %class.State, ptr %9, i32 0, i32 1
  %148 = getelementptr inbounds [315 x i16], ptr %147, i64 0, i64 115
  store i16 731, ptr %148, align 2
  br label %149

149:                                              ; preds = %142, %135
  br label %150

150:                                              ; preds = %149, %85, %80, %70, %65
  %151 = getelementptr inbounds %class.State, ptr %9, i32 0, i32 4
  %152 = getelementptr inbounds [2 x ptr], ptr %151, i64 0, i64 0
  %153 = load ptr, ptr %152, align 8
  %154 = icmp ne ptr %153, null
  br i1 %154, label %155, label %235

155:                                              ; preds = %150
  %156 = getelementptr inbounds %class.State, ptr %9, i32 0, i32 4
  %157 = getelementptr inbounds [2 x ptr], ptr %156, i64 0, i64 0
  %158 = load ptr, ptr %157, align 8
  %159 = getelementptr inbounds %class.State, ptr %158, i32 0, i32 1
  %160 = getelementptr inbounds [315 x i16], ptr %159, i64 0, i64 114
  %161 = load i16, ptr %160, align 4
  %162 = zext i16 %161 to i32
  %163 = and i32 %162, 1
  %164 = icmp ne i32 %163, 0
  br i1 %164, label %165, label %235

165:                                              ; preds = %155
  %166 = getelementptr inbounds %class.State, ptr %9, i32 0, i32 4
  %167 = getelementptr inbounds [2 x ptr], ptr %166, i64 0, i64 1
  %168 = load ptr, ptr %167, align 8
  %169 = icmp ne ptr %168, null
  br i1 %169, label %170, label %235

170:                                              ; preds = %165
  %171 = getelementptr inbounds %class.State, ptr %9, i32 0, i32 4
  %172 = getelementptr inbounds [2 x ptr], ptr %171, i64 0, i64 1
  %173 = load ptr, ptr %172, align 8
  %174 = getelementptr inbounds %class.State, ptr %173, i32 0, i32 1
  %175 = getelementptr inbounds [315 x i16], ptr %174, i64 0, i64 114
  %176 = load i16, ptr %175, align 4
  %177 = zext i16 %176 to i32
  %178 = and i32 %177, 1
  %179 = icmp ne i32 %178, 0
  br i1 %179, label %180, label %235

180:                                              ; preds = %170
  %181 = getelementptr inbounds %class.State, ptr %9, i32 0, i32 4
  %182 = getelementptr inbounds [2 x ptr], ptr %181, i64 0, i64 0
  %183 = load ptr, ptr %182, align 8
  %184 = getelementptr inbounds %class.State, ptr %183, i32 0, i32 0
  %185 = getelementptr inbounds [315 x i32], ptr %184, i64 0, i64 114
  %186 = load i32, ptr %185, align 8
  %187 = getelementptr inbounds %class.State, ptr %9, i32 0, i32 4
  %188 = getelementptr inbounds [2 x ptr], ptr %187, i64 0, i64 1
  %189 = load ptr, ptr %188, align 8
  %190 = getelementptr inbounds %class.State, ptr %189, i32 0, i32 0
  %191 = getelementptr inbounds [315 x i32], ptr %190, i64 0, i64 114
  %192 = load i32, ptr %191, align 8
  %193 = add i32 %186, %192
  %194 = add i32 %193, 100
  store i32 %194, ptr %7, align 4
  %195 = getelementptr inbounds %class.State, ptr %9, i32 0, i32 1
  %196 = getelementptr inbounds [315 x i16], ptr %195, i64 0, i64 114
  %197 = load i16, ptr %196, align 4
  %198 = zext i16 %197 to i32
  %199 = and i32 %198, 1
  %200 = icmp eq i32 %199, 0
  br i1 %200, label %207, label %201

201:                                              ; preds = %180
  %202 = getelementptr inbounds %class.State, ptr %9, i32 0, i32 0
  %203 = getelementptr inbounds [315 x i32], ptr %202, i64 0, i64 114
  %204 = load i32, ptr %203, align 8
  %205 = load i32, ptr %7, align 4
  %206 = icmp ugt i32 %204, %205
  br i1 %206, label %207, label %213

207:                                              ; preds = %201, %180
  %208 = load i32, ptr %7, align 4
  %209 = getelementptr inbounds %class.State, ptr %9, i32 0, i32 0
  %210 = getelementptr inbounds [315 x i32], ptr %209, i64 0, i64 114
  store i32 %208, ptr %210, align 8
  %211 = getelementptr inbounds %class.State, ptr %9, i32 0, i32 1
  %212 = getelementptr inbounds [315 x i16], ptr %211, i64 0, i64 114
  store i16 3041, ptr %212, align 4
  br label %213

213:                                              ; preds = %207, %201
  %214 = getelementptr inbounds %class.State, ptr %9, i32 0, i32 1
  %215 = getelementptr inbounds [315 x i16], ptr %214, i64 0, i64 115
  %216 = load i16, ptr %215, align 2
  %217 = zext i16 %216 to i32
  %218 = and i32 %217, 1
  %219 = icmp eq i32 %218, 0
  br i1 %219, label %227, label %220

220:                                              ; preds = %213
  %221 = getelementptr inbounds %class.State, ptr %9, i32 0, i32 0
  %222 = getelementptr inbounds [315 x i32], ptr %221, i64 0, i64 115
  %223 = load i32, ptr %222, align 4
  %224 = load i32, ptr %7, align 4
  %225 = add i32 %224, 100
  %226 = icmp ugt i32 %223, %225
  br i1 %226, label %227, label %234

227:                                              ; preds = %220, %213
  %228 = load i32, ptr %7, align 4
  %229 = add i32 %228, 100
  %230 = getelementptr inbounds %class.State, ptr %9, i32 0, i32 0
  %231 = getelementptr inbounds [315 x i32], ptr %230, i64 0, i64 115
  store i32 %229, ptr %231, align 4
  %232 = getelementptr inbounds %class.State, ptr %9, i32 0, i32 1
  %233 = getelementptr inbounds [315 x i16], ptr %232, i64 0, i64 115
  store i16 731, ptr %233, align 2
  br label %234

234:                                              ; preds = %227, %220
  br label %235

235:                                              ; preds = %234, %170, %165, %155, %150
  %236 = getelementptr inbounds %class.State, ptr %9, i32 0, i32 4
  %237 = getelementptr inbounds [2 x ptr], ptr %236, i64 0, i64 0
  %238 = load ptr, ptr %237, align 8
  %239 = icmp ne ptr %238, null
  br i1 %239, label %240, label %320

240:                                              ; preds = %235
  %241 = getelementptr inbounds %class.State, ptr %9, i32 0, i32 4
  %242 = getelementptr inbounds [2 x ptr], ptr %241, i64 0, i64 0
  %243 = load ptr, ptr %242, align 8
  %244 = getelementptr inbounds %class.State, ptr %243, i32 0, i32 1
  %245 = getelementptr inbounds [315 x i16], ptr %244, i64 0, i64 114
  %246 = load i16, ptr %245, align 4
  %247 = zext i16 %246 to i32
  %248 = and i32 %247, 1
  %249 = icmp ne i32 %248, 0
  br i1 %249, label %250, label %320

250:                                              ; preds = %240
  %251 = getelementptr inbounds %class.State, ptr %9, i32 0, i32 4
  %252 = getelementptr inbounds [2 x ptr], ptr %251, i64 0, i64 1
  %253 = load ptr, ptr %252, align 8
  %254 = icmp ne ptr %253, null
  br i1 %254, label %255, label %320

255:                                              ; preds = %250
  %256 = getelementptr inbounds %class.State, ptr %9, i32 0, i32 4
  %257 = getelementptr inbounds [2 x ptr], ptr %256, i64 0, i64 1
  %258 = load ptr, ptr %257, align 8
  %259 = getelementptr inbounds %class.State, ptr %258, i32 0, i32 1
  %260 = getelementptr inbounds [315 x i16], ptr %259, i64 0, i64 17
  %261 = load i16, ptr %260, align 2
  %262 = zext i16 %261 to i32
  %263 = and i32 %262, 1
  %264 = icmp ne i32 %263, 0
  br i1 %264, label %265, label %320

265:                                              ; preds = %255
  %266 = getelementptr inbounds %class.State, ptr %9, i32 0, i32 4
  %267 = getelementptr inbounds [2 x ptr], ptr %266, i64 0, i64 0
  %268 = load ptr, ptr %267, align 8
  %269 = getelementptr inbounds %class.State, ptr %268, i32 0, i32 0
  %270 = getelementptr inbounds [315 x i32], ptr %269, i64 0, i64 114
  %271 = load i32, ptr %270, align 8
  %272 = getelementptr inbounds %class.State, ptr %9, i32 0, i32 4
  %273 = getelementptr inbounds [2 x ptr], ptr %272, i64 0, i64 1
  %274 = load ptr, ptr %273, align 8
  %275 = getelementptr inbounds %class.State, ptr %274, i32 0, i32 0
  %276 = getelementptr inbounds [315 x i32], ptr %275, i64 0, i64 17
  %277 = load i32, ptr %276, align 4
  %278 = add i32 %271, %277
  %279 = add i32 %278, 100
  store i32 %279, ptr %8, align 4
  %280 = getelementptr inbounds %class.State, ptr %9, i32 0, i32 1
  %281 = getelementptr inbounds [315 x i16], ptr %280, i64 0, i64 114
  %282 = load i16, ptr %281, align 4
  %283 = zext i16 %282 to i32
  %284 = and i32 %283, 1
  %285 = icmp eq i32 %284, 0
  br i1 %285, label %292, label %286

286:                                              ; preds = %265
  %287 = getelementptr inbounds %class.State, ptr %9, i32 0, i32 0
  %288 = getelementptr inbounds [315 x i32], ptr %287, i64 0, i64 114
  %289 = load i32, ptr %288, align 8
  %290 = load i32, ptr %8, align 4
  %291 = icmp ugt i32 %289, %290
  br i1 %291, label %292, label %298

292:                                              ; preds = %286, %265
  %293 = load i32, ptr %8, align 4
  %294 = getelementptr inbounds %class.State, ptr %9, i32 0, i32 0
  %295 = getelementptr inbounds [315 x i32], ptr %294, i64 0, i64 114
  store i32 %293, ptr %295, align 8
  %296 = getelementptr inbounds %class.State, ptr %9, i32 0, i32 1
  %297 = getelementptr inbounds [315 x i16], ptr %296, i64 0, i64 114
  store i16 3037, ptr %297, align 4
  br label %298

298:                                              ; preds = %292, %286
  %299 = getelementptr inbounds %class.State, ptr %9, i32 0, i32 1
  %300 = getelementptr inbounds [315 x i16], ptr %299, i64 0, i64 115
  %301 = load i16, ptr %300, align 2
  %302 = zext i16 %301 to i32
  %303 = and i32 %302, 1
  %304 = icmp eq i32 %303, 0
  br i1 %304, label %312, label %305

305:                                              ; preds = %298
  %306 = getelementptr inbounds %class.State, ptr %9, i32 0, i32 0
  %307 = getelementptr inbounds [315 x i32], ptr %306, i64 0, i64 115
  %308 = load i32, ptr %307, align 4
  %309 = load i32, ptr %8, align 4
  %310 = add i32 %309, 100
  %311 = icmp ugt i32 %308, %310
  br i1 %311, label %312, label %319

312:                                              ; preds = %305, %298
  %313 = load i32, ptr %8, align 4
  %314 = add i32 %313, 100
  %315 = getelementptr inbounds %class.State, ptr %9, i32 0, i32 0
  %316 = getelementptr inbounds [315 x i32], ptr %315, i64 0, i64 115
  store i32 %314, ptr %316, align 4
  %317 = getelementptr inbounds %class.State, ptr %9, i32 0, i32 1
  %318 = getelementptr inbounds [315 x i16], ptr %317, i64 0, i64 115
  store i16 731, ptr %318, align 2
  br label %319

319:                                              ; preds = %312, %305
  br label %320

320:                                              ; preds = %319, %255, %250, %240, %235
  ret void
}