; Function Attrs: mustprogress nofree norecurse nosync nounwind willreturn memory(read, argmem: readwrite, inaccessiblemem: none) uwtable
define hidden void @_ZN5State20_sub_Op_RotateRightVEPK4Node(ptr nocapture noundef nonnull align 8 dereferenceable(1920) %0, ptr nocapture readnone %1) local_unnamed_addr #1 align 2 {
  %3 = getelementptr inbounds i8, ptr %0, i64 1904
  %4 = load ptr, ptr %3, align 8
  %.not = icmp eq ptr %4, null
  br i1 %.not, label %141, label %5

5:                                                ; preds = %2
  %6 = getelementptr inbounds i8, ptr %4, i64 1838
  %7 = load i16, ptr %6, align 2
  %8 = and i16 %7, 1
  %.not21 = icmp eq i16 %8, 0
  br i1 %.not21, label %28, label %9

9:                                                ; preds = %5
  %10 = getelementptr inbounds i8, ptr %0, i64 1912
  %11 = load ptr, ptr %10, align 8
  %.not22 = icmp eq ptr %11, null
  br i1 %.not22, label %28, label %12

12:                                               ; preds = %9
  %13 = getelementptr inbounds i8, ptr %11, i64 1356
  %14 = load i16, ptr %13, align 4
  %15 = and i16 %14, 1
  %.not23 = icmp eq i16 %15, 0
  br i1 %.not23, label %28, label %16

16:                                               ; preds = %12
  %17 = getelementptr inbounds i8, ptr %4, i64 1156
  %18 = load i32, ptr %17, align 4
  %19 = getelementptr inbounds i8, ptr %11, i64 192
  %20 = load i32, ptr %19, align 8
  %21 = add i32 %20, %18
  %22 = add i32 %21, 100
  %23 = getelementptr inbounds i8, ptr %0, i64 456
  store i32 %22, ptr %23, align 8
  %24 = getelementptr inbounds i8, ptr %0, i64 1488
  store i16 3209, ptr %24, align 8
  %25 = add i32 %21, 200
  %26 = getelementptr inbounds i8, ptr %0, i64 460
  store i32 %25, ptr %26, align 4
  %27 = getelementptr inbounds i8, ptr %0, i64 1490
  store i16 731, ptr %27, align 2
  br label %28

28:                                               ; preds = %16, %12, %9, %5
  %29 = getelementptr inbounds i8, ptr %4, i64 1866
  %30 = load i16, ptr %29, align 2
  %31 = and i16 %30, 1
  %.not25 = icmp eq i16 %31, 0
  br i1 %.not25, label %66, label %32

32:                                               ; preds = %28
  %33 = getelementptr inbounds i8, ptr %0, i64 1912
  %34 = load ptr, ptr %33, align 8
  %.not26 = icmp eq ptr %34, null
  br i1 %.not26, label %66, label %35

35:                                               ; preds = %32
  %36 = getelementptr inbounds i8, ptr %34, i64 1356
  %37 = load i16, ptr %36, align 4
  %38 = and i16 %37, 1
  %.not27 = icmp eq i16 %38, 0
  br i1 %.not27, label %66, label %39

39:                                               ; preds = %35
  %40 = getelementptr inbounds i8, ptr %4, i64 1212
  %41 = load i32, ptr %40, align 4
  %42 = getelementptr inbounds i8, ptr %34, i64 192
  %43 = load i32, ptr %42, align 8
  %44 = add i32 %43, %41
  %45 = add i32 %44, 100
  %46 = getelementptr inbounds i8, ptr %0, i64 1488
  %47 = load i16, ptr %46, align 8
  %48 = and i16 %47, 1
  %49 = icmp eq i16 %48, 0
  %50 = getelementptr inbounds i8, ptr %0, i64 456
  %51 = load i32, ptr %50, align 8
  %52 = icmp ugt i32 %51, %45
  %or.cond = select i1 %49, i1 true, i1 %52
  br i1 %or.cond, label %53, label %54

53:                                               ; preds = %39
  store i32 %45, ptr %50, align 8
  store i16 3205, ptr %46, align 8
  br label %54

54:                                               ; preds = %39, %53
  %55 = getelementptr inbounds i8, ptr %0, i64 1490
  %56 = load i16, ptr %55, align 2
  %57 = and i16 %56, 1
  %58 = icmp eq i16 %57, 0
  br i1 %58, label %._crit_edge, label %59

._crit_edge:                                      ; preds = %54
  %.pre52 = add i32 %44, 200
  br label %64

59:                                               ; preds = %54
  %60 = getelementptr inbounds i8, ptr %0, i64 460
  %61 = load i32, ptr %60, align 4
  %62 = add i32 %44, 200
  %63 = icmp ugt i32 %61, %62
  br i1 %63, label %64, label %66

64:                                               ; preds = %._crit_edge, %59
  %.pre-phi53 = phi i32 [ %.pre52, %._crit_edge ], [ %62, %59 ]
  %65 = getelementptr inbounds i8, ptr %0, i64 460
  store i32 %.pre-phi53, ptr %65, align 4
  store i16 731, ptr %55, align 2
  br label %66

66:                                               ; preds = %59, %64, %35, %32, %28
  %67 = getelementptr inbounds i8, ptr %4, i64 1488
  %68 = load i16, ptr %67, align 4
  %69 = and i16 %68, 1
  %.not29 = icmp eq i16 %69, 0
  br i1 %.not29, label %104, label %70

70:                                               ; preds = %66
  %71 = getelementptr inbounds i8, ptr %0, i64 1912
  %72 = load ptr, ptr %71, align 8
  %.not30 = icmp eq ptr %72, null
  br i1 %.not30, label %104, label %73

73:                                               ; preds = %70
  %74 = getelementptr inbounds i8, ptr %72, i64 1488
  %75 = load i16, ptr %74, align 4
  %76 = and i16 %75, 1
  %.not31 = icmp eq i16 %76, 0
  br i1 %.not31, label %104, label %77

77:                                               ; preds = %73
  %78 = getelementptr inbounds i8, ptr %4, i64 456
  %79 = load i32, ptr %78, align 8
  %80 = getelementptr inbounds i8, ptr %72, i64 456
  %81 = load i32, ptr %80, align 8
  %82 = add i32 %81, %79
  %83 = add i32 %82, 100
  %84 = getelementptr inbounds i8, ptr %0, i64 1488
  %85 = load i16, ptr %84, align 8
  %86 = and i16 %85, 1
  %87 = icmp eq i16 %86, 0
  %88 = getelementptr inbounds i8, ptr %0, i64 456
  %89 = load i32, ptr %88, align 8
  %90 = icmp ugt i32 %89, %83
  %or.cond40 = select i1 %87, i1 true, i1 %90
  br i1 %or.cond40, label %91, label %92

91:                                               ; preds = %77
  store i32 %83, ptr %88, align 8
  store i16 3041, ptr %84, align 8
  br label %92

92:                                               ; preds = %77, %91
  %93 = getelementptr inbounds i8, ptr %0, i64 1490
  %94 = load i16, ptr %93, align 2
  %95 = and i16 %94, 1
  %96 = icmp eq i16 %95, 0
  br i1 %96, label %._crit_edge48, label %97

._crit_edge48:                                    ; preds = %92
  %.pre50 = add i32 %82, 200
  br label %102

97:                                               ; preds = %92
  %98 = getelementptr inbounds i8, ptr %0, i64 460
  %99 = load i32, ptr %98, align 4
  %100 = add i32 %82, 200
  %101 = icmp ugt i32 %99, %100
  br i1 %101, label %102, label %104

102:                                              ; preds = %._crit_edge48, %97
  %.pre-phi51 = phi i32 [ %.pre50, %._crit_edge48 ], [ %100, %97 ]
  %103 = getelementptr inbounds i8, ptr %0, i64 460
  store i32 %.pre-phi51, ptr %103, align 4
  store i16 731, ptr %93, align 2
  br label %104

104:                                              ; preds = %97, %102, %73, %70, %66
  %105 = load i16, ptr %67, align 4
  %106 = and i16 %105, 1
  %.not33 = icmp eq i16 %106, 0
  br i1 %.not33, label %141, label %107

107:                                              ; preds = %104
  %108 = getelementptr inbounds i8, ptr %0, i64 1912
  %109 = load ptr, ptr %108, align 8
  %.not34 = icmp eq ptr %109, null
  br i1 %.not34, label %141, label %110

110:                                              ; preds = %107
  %111 = getelementptr inbounds i8, ptr %109, i64 1294
  %112 = load i16, ptr %111, align 2
  %113 = and i16 %112, 1
  %.not35 = icmp eq i16 %113, 0
  br i1 %.not35, label %141, label %114

114:                                              ; preds = %110
  %115 = getelementptr inbounds i8, ptr %4, i64 456
  %116 = load i32, ptr %115, align 8
  %117 = getelementptr inbounds i8, ptr %109, i64 68
  %118 = load i32, ptr %117, align 4
  %119 = add i32 %118, %116
  %120 = add i32 %119, 100
  %121 = getelementptr inbounds i8, ptr %0, i64 1488
  %122 = load i16, ptr %121, align 8
  %123 = and i16 %122, 1
  %124 = icmp eq i16 %123, 0
  %125 = getelementptr inbounds i8, ptr %0, i64 456
  %126 = load i32, ptr %125, align 8
  %127 = icmp ugt i32 %126, %120
  %or.cond43 = select i1 %124, i1 true, i1 %127
  br i1 %or.cond43, label %128, label %129

128:                                              ; preds = %114
  store i32 %120, ptr %125, align 8
  store i16 3037, ptr %121, align 8
  br label %129

129:                                              ; preds = %114, %128
  %130 = getelementptr inbounds i8, ptr %0, i64 1490
  %131 = load i16, ptr %130, align 2
  %132 = and i16 %131, 1
  %133 = icmp eq i16 %132, 0
  br i1 %133, label %._crit_edge49, label %134

._crit_edge49:                                    ; preds = %129
  %.pre = add i32 %119, 200
  br label %139

134:                                              ; preds = %129
  %135 = getelementptr inbounds i8, ptr %0, i64 460
  %136 = load i32, ptr %135, align 4
  %137 = add i32 %119, 200
  %138 = icmp ugt i32 %136, %137
  br i1 %138, label %139, label %141

139:                                              ; preds = %._crit_edge49, %134
  %.pre-phi = phi i32 [ %.pre, %._crit_edge49 ], [ %137, %134 ]
  %140 = getelementptr inbounds i8, ptr %0, i64 460
  store i32 %.pre-phi, ptr %140, align 4
  store i16 731, ptr %130, align 2
  br label %141

141:                                              ; preds = %2, %134, %139, %110, %107, %104
  ret void
}